; ModuleID = '21/1289.c'
source_filename = "21/1289.c"
target datalayout = "e-m:e-p270:32:32-p271:32:32-p272:64:64-i64:64-f80:128-n8:16:32:64-S128"
target triple = "x86_64-pc-linux-gnu"

@.str = private unnamed_addr constant [3 x i8] c"%d\00", align 1
@.str.1 = private unnamed_addr constant [4 x i8] c",%d\00", align 1

; Function Attrs: noinline nounwind uwtable
define dso_local i32 @main() #0 {
  %1 = alloca i32, align 4
  %2 = alloca i32, align 4
  %3 = alloca [300 x i32], align 16
  %4 = alloca i32, align 4
  %5 = alloca i32, align 4
  %6 = alloca double, align 8
  %7 = alloca double, align 8
  %8 = alloca [300 x double], align 16
  %9 = alloca i32, align 4
  %10 = alloca i32, align 4
  %11 = alloca double, align 8
  store i32 0, i32* %1, align 4
  %12 = call i32 (i8*, ...) @__isoc99_scanf(i8* getelementptr inbounds ([3 x i8], [3 x i8]* @.str, i64 0, i64 0), i32* %2)
  store i32 0, i32* %5, align 4
  store i32 0, i32* %4, align 4
  br label %13

13:                                               ; preds = %28, %0
  %14 = load i32, i32* %4, align 4
  %15 = load i32, i32* %2, align 4
  %16 = icmp slt i32 %14, %15
  br i1 %16, label %17, label %31

17:                                               ; preds = %13
  %18 = load i32, i32* %4, align 4
  %19 = sext i32 %18 to i64
  %20 = getelementptr inbounds [300 x i32], [300 x i32]* %3, i64 0, i64 %19
  %21 = call i32 (i8*, ...) @__isoc99_scanf(i8* getelementptr inbounds ([3 x i8], [3 x i8]* @.str, i64 0, i64 0), i32* %20)
  %22 = load i32, i32* %4, align 4
  %23 = sext i32 %22 to i64
  %24 = getelementptr inbounds [300 x i32], [300 x i32]* %3, i64 0, i64 %23
  %25 = load i32, i32* %24, align 4
  %26 = load i32, i32* %5, align 4
  %27 = add nsw i32 %26, %25
  store i32 %27, i32* %5, align 4
  br label %28

28:                                               ; preds = %17
  %29 = load i32, i32* %4, align 4
  %30 = add nsw i32 %29, 1
  store i32 %30, i32* %4, align 4
  br label %13

31:                                               ; preds = %13
  %32 = load i32, i32* %5, align 4
  %33 = sitofp i32 %32 to double
  %34 = load i32, i32* %2, align 4
  %35 = sitofp i32 %34 to double
  %36 = fdiv double %33, %35
  store double %36, double* %6, align 8
  store double 0.000000e+00, double* %7, align 8
  %37 = bitcast [300 x double]* %8 to i8*
  call void @llvm.memset.p0i8.i64(i8* align 16 %37, i8 0, i64 2400, i1 false)
  store i32 0, i32* %4, align 4
  br label %38

38:                                               ; preds = %85, %31
  %39 = load i32, i32* %4, align 4
  %40 = load i32, i32* %2, align 4
  %41 = icmp slt i32 %39, %40
  br i1 %41, label %42, label %88

42:                                               ; preds = %38
  %43 = load i32, i32* %4, align 4
  %44 = sext i32 %43 to i64
  %45 = getelementptr inbounds [300 x i32], [300 x i32]* %3, i64 0, i64 %44
  %46 = load i32, i32* %45, align 4
  %47 = sitofp i32 %46 to double
  %48 = load double, double* %6, align 8
  %49 = fcmp ogt double %47, %48
  br i1 %49, label %50, label %61

50:                                               ; preds = %42
  %51 = load i32, i32* %4, align 4
  %52 = sext i32 %51 to i64
  %53 = getelementptr inbounds [300 x i32], [300 x i32]* %3, i64 0, i64 %52
  %54 = load i32, i32* %53, align 4
  %55 = sitofp i32 %54 to double
  %56 = load double, double* %6, align 8
  %57 = fsub double %55, %56
  %58 = load i32, i32* %4, align 4
  %59 = sext i32 %58 to i64
  %60 = getelementptr inbounds [300 x double], [300 x double]* %8, i64 0, i64 %59
  store double %57, double* %60, align 8
  br label %72

61:                                               ; preds = %42
  %62 = load double, double* %6, align 8
  %63 = load i32, i32* %4, align 4
  %64 = sext i32 %63 to i64
  %65 = getelementptr inbounds [300 x i32], [300 x i32]* %3, i64 0, i64 %64
  %66 = load i32, i32* %65, align 4
  %67 = sitofp i32 %66 to double
  %68 = fsub double %62, %67
  %69 = load i32, i32* %4, align 4
  %70 = sext i32 %69 to i64
  %71 = getelementptr inbounds [300 x double], [300 x double]* %8, i64 0, i64 %70
  store double %68, double* %71, align 8
  br label %72

72:                                               ; preds = %61, %50
  %73 = load i32, i32* %4, align 4
  %74 = sext i32 %73 to i64
  %75 = getelementptr inbounds [300 x double], [300 x double]* %8, i64 0, i64 %74
  %76 = load double, double* %75, align 8
  %77 = load double, double* %7, align 8
  %78 = fcmp ogt double %76, %77
  br i1 %78, label %79, label %84

79:                                               ; preds = %72
  %80 = load i32, i32* %4, align 4
  %81 = sext i32 %80 to i64
  %82 = getelementptr inbounds [300 x double], [300 x double]* %8, i64 0, i64 %81
  %83 = load double, double* %82, align 8
  store double %83, double* %7, align 8
  br label %84

84:                                               ; preds = %79, %72
  br label %85

85:                                               ; preds = %84
  %86 = load i32, i32* %4, align 4
  %87 = add nsw i32 %86, 1
  store i32 %87, i32* %4, align 4
  br label %38

88:                                               ; preds = %38
  store i32 0, i32* %4, align 4
  br label %89

89:                                               ; preds = %151, %88
  %90 = load i32, i32* %4, align 4
  %91 = load i32, i32* %2, align 4
  %92 = icmp slt i32 %90, %91
  br i1 %92, label %93, label %154

93:                                               ; preds = %89
  %94 = load i32, i32* %2, align 4
  %95 = sub nsw i32 %94, 1
  store i32 %95, i32* %9, align 4
  br label %96

96:                                               ; preds = %147, %93
  %97 = load i32, i32* %9, align 4
  %98 = load i32, i32* %4, align 4
  %99 = icmp sgt i32 %97, %98
  br i1 %99, label %100, label %150

100:                                              ; preds = %96
  %101 = load i32, i32* %9, align 4
  %102 = sext i32 %101 to i64
  %103 = getelementptr inbounds [300 x i32], [300 x i32]* %3, i64 0, i64 %102
  %104 = load i32, i32* %103, align 4
  %105 = load i32, i32* %9, align 4
  %106 = sub nsw i32 %105, 1
  %107 = sext i32 %106 to i64
  %108 = getelementptr inbounds [300 x i32], [300 x i32]* %3, i64 0, i64 %107
  %109 = load i32, i32* %108, align 4
  %110 = icmp slt i32 %104, %109
  br i1 %110, label %111, label %146

111:                                              ; preds = %100
  %112 = load i32, i32* %9, align 4
  %113 = sub nsw i32 %112, 1
  %114 = sext i32 %113 to i64
  %115 = getelementptr inbounds [300 x i32], [300 x i32]* %3, i64 0, i64 %114
  %116 = load i32, i32* %115, align 4
  store i32 %116, i32* %10, align 4
  %117 = load i32, i32* %9, align 4
  %118 = sext i32 %117 to i64
  %119 = getelementptr inbounds [300 x i32], [300 x i32]* %3, i64 0, i64 %118
  %120 = load i32, i32* %119, align 4
  %121 = load i32, i32* %9, align 4
  %122 = sub nsw i32 %121, 1
  %123 = sext i32 %122 to i64
  %124 = getelementptr inbounds [300 x i32], [300 x i32]* %3, i64 0, i64 %123
  store i32 %120, i32* %124, align 4
  %125 = load i32, i32* %10, align 4
  %126 = load i32, i32* %9, align 4
  %127 = sext i32 %126 to i64
  %128 = getelementptr inbounds [300 x i32], [300 x i32]* %3, i64 0, i64 %127
  store i32 %125, i32* %128, align 4
  %129 = load i32, i32* %9, align 4
  %130 = sub nsw i32 %129, 1
  %131 = sext i32 %130 to i64
  %132 = getelementptr inbounds [300 x double], [300 x double]* %8, i64 0, i64 %131
  %133 = load double, double* %132, align 8
  store double %133, double* %11, align 8
  %134 = load i32, i32* %9, align 4
  %135 = sext i32 %134 to i64
  %136 = getelementptr inbounds [300 x double], [300 x double]* %8, i64 0, i64 %135
  %137 = load double, double* %136, align 8
  %138 = load i32, i32* %9, align 4
  %139 = sub nsw i32 %138, 1
  %140 = sext i32 %139 to i64
  %141 = getelementptr inbounds [300 x double], [300 x double]* %8, i64 0, i64 %140
  store double %137, double* %141, align 8
  %142 = load double, double* %11, align 8
  %143 = load i32, i32* %9, align 4
  %144 = sext i32 %143 to i64
  %145 = getelementptr inbounds [300 x double], [300 x double]* %8, i64 0, i64 %144
  store double %142, double* %145, align 8
  br label %146

146:                                              ; preds = %111, %100
  br label %147

147:                                              ; preds = %146
  %148 = load i32, i32* %9, align 4
  %149 = add nsw i32 %148, -1
  store i32 %149, i32* %9, align 4
  br label %96

150:                                              ; preds = %96
  br label %151

151:                                              ; preds = %150
  %152 = load i32, i32* %4, align 4
  %153 = add nsw i32 %152, 1
  store i32 %153, i32* %4, align 4
  br label %89

154:                                              ; preds = %89
  store i32 0, i32* %4, align 4
  br label %155

155:                                              ; preds = %176, %154
  %156 = load i32, i32* %4, align 4
  %157 = load i32, i32* %2, align 4
  %158 = icmp slt i32 %156, %157
  br i1 %158, label %159, label %179

159:                                              ; preds = %155
  %160 = load i32, i32* %4, align 4
  %161 = sext i32 %160 to i64
  %162 = getelementptr inbounds [300 x double], [300 x double]* %8, i64 0, i64 %161
  %163 = load double, double* %162, align 8
  %164 = load double, double* %7, align 8
  %165 = fcmp oeq double %163, %164
  br i1 %165, label %166, label %175

166:                                              ; preds = %159
  %167 = load i32, i32* %4, align 4
  %168 = sext i32 %167 to i64
  %169 = getelementptr inbounds [300 x i32], [300 x i32]* %3, i64 0, i64 %168
  %170 = load i32, i32* %169, align 4
  %171 = call i32 (i8*, ...) @printf(i8* getelementptr inbounds ([3 x i8], [3 x i8]* @.str, i64 0, i64 0), i32 %170)
  %172 = load i32, i32* %4, align 4
  %173 = sext i32 %172 to i64
  %174 = getelementptr inbounds [300 x double], [300 x double]* %8, i64 0, i64 %173
  store double 0.000000e+00, double* %174, align 8
  br label %179

175:                                              ; preds = %159
  br label %176

176:                                              ; preds = %175
  %177 = load i32, i32* %4, align 4
  %178 = add nsw i32 %177, 1
  store i32 %178, i32* %4, align 4
  br label %155

179:                                              ; preds = %166, %155
  store i32 0, i32* %4, align 4
  br label %180

180:                                              ; preds = %198, %179
  %181 = load i32, i32* %4, align 4
  %182 = load i32, i32* %2, align 4
  %183 = icmp slt i32 %181, %182
  br i1 %183, label %184, label %201

184:                                              ; preds = %180
  %185 = load i32, i32* %4, align 4
  %186 = sext i32 %185 to i64
  %187 = getelementptr inbounds [300 x double], [300 x double]* %8, i64 0, i64 %186
  %188 = load double, double* %187, align 8
  %189 = load double, double* %7, align 8
  %190 = fcmp oeq double %188, %189
  br i1 %190, label %191, label %197

191:                                              ; preds = %184
  %192 = load i32, i32* %4, align 4
  %193 = sext i32 %192 to i64
  %194 = getelementptr inbounds [300 x i32], [300 x i32]* %3, i64 0, i64 %193
  %195 = load i32, i32* %194, align 4
  %196 = call i32 (i8*, ...) @printf(i8* getelementptr inbounds ([4 x i8], [4 x i8]* @.str.1, i64 0, i64 0), i32 %195)
  br label %197

197:                                              ; preds = %191, %184
  br label %198

198:                                              ; preds = %197
  %199 = load i32, i32* %4, align 4
  %200 = add nsw i32 %199, 1
  store i32 %200, i32* %4, align 4
  br label %180

201:                                              ; preds = %180
  ret i32 0
}

declare dso_local i32 @__isoc99_scanf(i8*, ...) #1

; Function Attrs: argmemonly nounwind willreturn
declare void @llvm.memset.p0i8.i64(i8* nocapture writeonly, i8, i64, i1 immarg) #2

declare dso_local i32 @printf(i8*, ...) #1


!llvm.module.flags = !{!0}
!llvm.ident = !{!1}

!0 = !{i32 1, !"wchar_size", i32 4}
!1 = !{!"clang version 10.0.0-4ubuntu1 "}
